target datalayout = "e-m:e-p270:32:32-p271:32:32-p272:64:64-i64:64-i128:128-f80:128-n8:16:32:64-S128"
target triple = "x86_64-pc-linux-gnu"

%struct._zend_phpdbg_globals = type { [11 x %struct._zend_array], %struct._zend_array, %struct._zend_array, ptr, ptr, %struct.phpdbg_frame_t, i32, ptr, %struct.phpdbg_lexer_data, ptr, %struct.sigaction, i32, i64, %struct.phpdbg_btree, %struct.phpdbg_btree, %struct._zend_array, %struct._zend_array, %struct._zend_array, %struct._zend_array, ptr, ptr, i8, ptr, ptr, ptr, i64, ptr, %struct._zval_struct, i32, i32, i8, i8, ptr, ptr, ptr, %struct._zend_array, ptr, ptr, ptr, [3 x %struct.anon.8], ptr, %struct.anon.9, i64, [2 x ptr], [3 x ptr], ptr, i8, ptr, ptr, [500 x i8], i32, %struct.phpdbg_signal_safe_mem, ptr, i64, ptr, i64 }
%struct.phpdbg_frame_t = type { i32, ptr, ptr }
%struct.phpdbg_lexer_data = type { i32, ptr, ptr, ptr, ptr, i32 }
%struct.sigaction = type { %union.anon.2, %struct.__sigset_t, i32, ptr }
%union.anon.2 = type { ptr }
%struct.__sigset_t = type { [16 x i64] }
%struct.phpdbg_btree = type { i64, i64, i8, ptr }
%struct._zval_struct = type { %union._zend_value, %union.anon.4, %union.anon.7 }
%union._zend_value = type { i64 }
%union.anon.4 = type { i32 }
%union.anon.7 = type { i32 }
%struct._zend_array = type { %struct._zend_refcounted_h, %union.anon.0, i32, %union.anon.1, i32, i32, i32, i32, i64, ptr }
%struct._zend_refcounted_h = type { i32, %union.anon }
%union.anon = type { i32 }
%union.anon.0 = type { i32 }
%union.anon.1 = type { ptr }
%struct.anon.8 = type { i32 }
%struct.anon.9 = type { i8, i32, i32, ptr, i32 }
%struct.phpdbg_signal_safe_mem = type { ptr, i8, ptr, ptr }
%struct._phpdbg_breakbase_t = type { i32, i8, i64, i8, ptr }
%struct._phpdbg_breakfile_t = type { i32, i8, i64, i8, ptr, i64 }
%struct._phpdbg_breaksymbol_t = type { i32, i8, i64, i8, ptr }
%struct._phpdbg_breakmethod_t = type { i32, i8, i64, i8, ptr, i64, ptr, i64 }
%struct._phpdbg_breakopline_t = type { i32, i8, i64, i8, ptr, i64, ptr, i64, i64, i64 }
%struct._phpdbg_breakop_t = type { i32, i8, i64, i8, ptr, i64 }
%struct._phpdbg_breakcond_t = type { i32, i8, i64, i8, ptr, i64, i8, %struct._phpdbg_param, i64, ptr }
%struct._phpdbg_param = type { i32, i64, i64, %struct.anon.10, %struct.anon.11, ptr, i64, ptr, ptr }
%struct.anon.10 = type { ptr, i64 }
%struct.anon.11 = type { ptr, ptr }
%struct._phpdbg_breakline_t = type { i32, i8, i64, i8, ptr, i64, ptr }

@phpdbg_globals = external global %struct._zend_phpdbg_globals, align 8
@.str.49 = private unnamed_addr constant [36 x i8] c"Breakpoint #%d at %s:%lu, hits: %lu\00", align 1
@.str.50 = private unnamed_addr constant [43 x i8] c"Breakpoint #%d in %s() at %s:%u, hits: %lu\00", align 1
@.str.51 = private unnamed_addr constant [43 x i8] c"Breakpoint #%d in #%lu at %s:%u, hits: %lu\00", align 1
@.str.52 = private unnamed_addr constant [51 x i8] c"Breakpoint #%d in %s::%s()#%lu at %s:%u, hits: %lu\00", align 1
@.str.53 = private unnamed_addr constant [47 x i8] c"Breakpoint #%d in %s()#%lu at %s:%u, hits: %lu\00", align 1
@.str.54 = private unnamed_addr constant [41 x i8] c"Breakpoint #%d in %s at %s:%u, hits: %lu\00", align 1
@.str.55 = private unnamed_addr constant [47 x i8] c"Breakpoint #%d in %s::%s() at %s:%u, hits: %lu\00", align 1
@.str.56 = private unnamed_addr constant [60 x i8] c"Conditional breakpoint #%d: at %s if %s at %s:%u, hits: %lu\00", align 1
@.str.57 = private unnamed_addr constant [62 x i8] c"Conditional breakpoint #%d: on %s == true at %s:%u, hits: %lu\00", align 1
@.str.58 = private unnamed_addr constant [28 x i8] c"Unknown breakpoint at %s:%u\00", align 1

; Function Attrs: nounwind uwtable
define void @phpdbg_print_breakpoint(ptr noundef %0) #0 {
  %2 = alloca ptr, align 8
  %3 = alloca ptr, align 8
  store ptr %0, ptr %2, align 8
  %4 = load ptr, ptr %2, align 8
  %5 = icmp ne ptr %4, null
  br i1 %5, label %7, label %6

6:                                                ; preds = %1
  br label %180

7:                                                ; preds = %1
  %8 = load ptr, ptr %2, align 8
  %9 = getelementptr inbounds %struct._phpdbg_breakbase_t, ptr %8, i32 0, i32 1
  %10 = load i8, ptr %9, align 4
  %11 = zext i8 %10 to i32
  switch i32 %11, label %179 [
    i32 0, label %12
    i32 2, label %27
    i32 3, label %41
    i32 8, label %55
    i32 7, label %75
    i32 9, label %92
    i32 6, label %106
    i32 4, label %120
    i32 5, label %137
  ]

12:                                               ; preds = %7
  %13 = load i32, ptr getelementptr inbounds (%struct._zend_phpdbg_globals, ptr @phpdbg_globals, i32 0, i32 39, i64 1), align 4
  %14 = load ptr, ptr %2, align 8
  %15 = getelementptr inbounds %struct._phpdbg_breakfile_t, ptr %14, i32 0, i32 0
  %16 = load i32, ptr %15, align 8
  %17 = load ptr, ptr %2, align 8
  %18 = getelementptr inbounds %struct._phpdbg_breakfile_t, ptr %17, i32 0, i32 4
  %19 = load ptr, ptr %18, align 8
  %20 = load ptr, ptr %2, align 8
  %21 = getelementptr inbounds %struct._phpdbg_breakfile_t, ptr %20, i32 0, i32 5
  %22 = load i64, ptr %21, align 8
  %23 = load ptr, ptr %2, align 8
  %24 = getelementptr inbounds %struct._phpdbg_breakfile_t, ptr %23, i32 0, i32 2
  %25 = load i64, ptr %24, align 8
  %26 = call i32 (i32, i32, ptr, ...) @phpdbg_print(i32 noundef 2, i32 noundef %13, ptr noundef @.str.49, i32 noundef %16, ptr noundef %19, i64 noundef %22, i64 noundef %25)
  br label %185

27:                                               ; preds = %7
  %28 = load i32, ptr getelementptr inbounds (%struct._zend_phpdbg_globals, ptr @phpdbg_globals, i32 0, i32 39, i64 1), align 4
  %29 = load ptr, ptr %2, align 8
  %30 = getelementptr inbounds %struct._phpdbg_breaksymbol_t, ptr %29, i32 0, i32 0
  %31 = load i32, ptr %30, align 8
  %32 = load ptr, ptr %2, align 8
  %33 = getelementptr inbounds %struct._phpdbg_breaksymbol_t, ptr %32, i32 0, i32 4
  %34 = load ptr, ptr %33, align 8
  %35 = call ptr @zend_get_executed_filename()
  %36 = call i32 @zend_get_executed_lineno()
  %37 = load ptr, ptr %2, align 8
  %38 = getelementptr inbounds %struct._phpdbg_breakfile_t, ptr %37, i32 0, i32 2
  %39 = load i64, ptr %38, align 8
  %40 = call i32 (i32, i32, ptr, ...) @phpdbg_print(i32 noundef 2, i32 noundef %28, ptr noundef @.str.50, i32 noundef %31, ptr noundef %34, ptr noundef %35, i32 noundef %36, i64 noundef %39)
  br label %185

41:                                               ; preds = %7
  %42 = load i32, ptr getelementptr inbounds (%struct._zend_phpdbg_globals, ptr @phpdbg_globals, i32 0, i32 39, i64 1), align 4
  %43 = load ptr, ptr %2, align 8
  %44 = getelementptr inbounds %struct._phpdbg_breakline_t, ptr %43, i32 0, i32 0
  %45 = load i32, ptr %44, align 8
  %46 = load ptr, ptr %2, align 8
  %47 = getelementptr inbounds %struct._phpdbg_breakline_t, ptr %46, i32 0, i32 5
  %48 = load i64, ptr %47, align 8
  %49 = call ptr @zend_get_executed_filename()
  %50 = call i32 @zend_get_executed_lineno()
  %51 = load ptr, ptr %2, align 8
  %52 = getelementptr inbounds %struct._phpdbg_breakline_t, ptr %51, i32 0, i32 2
  %53 = load i64, ptr %52, align 8
  %54 = call i32 (i32, i32, ptr, ...) @phpdbg_print(i32 noundef 2, i32 noundef %42, ptr noundef @.str.51, i32 noundef %45, i64 noundef %48, ptr noundef %49, i32 noundef %50, i64 noundef %53)
  br label %185

55:                                               ; preds = %7
  %56 = load i32, ptr getelementptr inbounds (%struct._zend_phpdbg_globals, ptr @phpdbg_globals, i32 0, i32 39, i64 1), align 4
  %57 = load ptr, ptr %2, align 8
  %58 = getelementptr inbounds %struct._phpdbg_breakopline_t, ptr %57, i32 0, i32 0
  %59 = load i32, ptr %58, align 8
  %60 = load ptr, ptr %2, align 8
  %61 = getelementptr inbounds %struct._phpdbg_breakopline_t, ptr %60, i32 0, i32 6
  %62 = load ptr, ptr %61, align 8
  %63 = load ptr, ptr %2, align 8
  %64 = getelementptr inbounds %struct._phpdbg_breakopline_t, ptr %63, i32 0, i32 4
  %65 = load ptr, ptr %64, align 8
  %66 = load ptr, ptr %2, align 8
  %67 = getelementptr inbounds %struct._phpdbg_breakopline_t, ptr %66, i32 0, i32 8
  %68 = load i64, ptr %67, align 8
  %69 = call ptr @zend_get_executed_filename()
  %70 = call i32 @zend_get_executed_lineno()
  %71 = load ptr, ptr %2, align 8
  %72 = getelementptr inbounds %struct._phpdbg_breakopline_t, ptr %71, i32 0, i32 2
  %73 = load i64, ptr %72, align 8
  %74 = call i32 (i32, i32, ptr, ...) @phpdbg_print(i32 noundef 2, i32 noundef %56, ptr noundef @.str.52, i32 noundef %59, ptr noundef %62, ptr noundef %65, i64 noundef %68, ptr noundef %69, i32 noundef %70, i64 noundef %73)
  br label %185

75:                                               ; preds = %7
  %76 = load i32, ptr getelementptr inbounds (%struct._zend_phpdbg_globals, ptr @phpdbg_globals, i32 0, i32 39, i64 1), align 4
  %77 = load ptr, ptr %2, align 8
  %78 = getelementptr inbounds %struct._phpdbg_breakopline_t, ptr %77, i32 0, i32 0
  %79 = load i32, ptr %78, align 8
  %80 = load ptr, ptr %2, align 8
  %81 = getelementptr inbounds %struct._phpdbg_breakopline_t, ptr %80, i32 0, i32 4
  %82 = load ptr, ptr %81, align 8
  %83 = load ptr, ptr %2, align 8
  %84 = getelementptr inbounds %struct._phpdbg_breakopline_t, ptr %83, i32 0, i32 8
  %85 = load i64, ptr %84, align 8
  %86 = call ptr @zend_get_executed_filename()
  %87 = call i32 @zend_get_executed_lineno()
  %88 = load ptr, ptr %2, align 8
  %89 = getelementptr inbounds %struct._phpdbg_breakopline_t, ptr %88, i32 0, i32 2
  %90 = load i64, ptr %89, align 8
  %91 = call i32 (i32, i32, ptr, ...) @phpdbg_print(i32 noundef 2, i32 noundef %76, ptr noundef @.str.53, i32 noundef %79, ptr noundef %82, i64 noundef %85, ptr noundef %86, i32 noundef %87, i64 noundef %90)
  br label %185

92:                                               ; preds = %7
  %93 = load i32, ptr getelementptr inbounds (%struct._zend_phpdbg_globals, ptr @phpdbg_globals, i32 0, i32 39, i64 1), align 4
  %94 = load ptr, ptr %2, align 8
  %95 = getelementptr inbounds %struct._phpdbg_breakopline_t, ptr %94, i32 0, i32 0
  %96 = load i32, ptr %95, align 8
  %97 = load ptr, ptr %2, align 8
  %98 = getelementptr inbounds %struct._phpdbg_breakopline_t, ptr %97, i32 0, i32 8
  %99 = load i64, ptr %98, align 8
  %100 = call ptr @zend_get_executed_filename()
  %101 = call i32 @zend_get_executed_lineno()
  %102 = load ptr, ptr %2, align 8
  %103 = getelementptr inbounds %struct._phpdbg_breakopline_t, ptr %102, i32 0, i32 2
  %104 = load i64, ptr %103, align 8
  %105 = call i32 (i32, i32, ptr, ...) @phpdbg_print(i32 noundef 2, i32 noundef %93, ptr noundef @.str.51, i32 noundef %96, i64 noundef %99, ptr noundef %100, i32 noundef %101, i64 noundef %104)
  br label %185

106:                                              ; preds = %7
  %107 = load i32, ptr getelementptr inbounds (%struct._zend_phpdbg_globals, ptr @phpdbg_globals, i32 0, i32 39, i64 1), align 4
  %108 = load ptr, ptr %2, align 8
  %109 = getelementptr inbounds %struct._phpdbg_breakop_t, ptr %108, i32 0, i32 0
  %110 = load i32, ptr %109, align 8
  %111 = load ptr, ptr %2, align 8
  %112 = getelementptr inbounds %struct._phpdbg_breakop_t, ptr %111, i32 0, i32 4
  %113 = load ptr, ptr %112, align 8
  %114 = call ptr @zend_get_executed_filename()
  %115 = call i32 @zend_get_executed_lineno()
  %116 = load ptr, ptr %2, align 8
  %117 = getelementptr inbounds %struct._phpdbg_breakop_t, ptr %116, i32 0, i32 2
  %118 = load i64, ptr %117, align 8
  %119 = call i32 (i32, i32, ptr, ...) @phpdbg_print(i32 noundef 2, i32 noundef %107, ptr noundef @.str.54, i32 noundef %110, ptr noundef %113, ptr noundef %114, i32 noundef %115, i64 noundef %118)
  br label %185

120:                                              ; preds = %7
  %121 = load i32, ptr getelementptr inbounds (%struct._zend_phpdbg_globals, ptr @phpdbg_globals, i32 0, i32 39, i64 1), align 4
  %122 = load ptr, ptr %2, align 8
  %123 = getelementptr inbounds %struct._phpdbg_breakmethod_t, ptr %122, i32 0, i32 0
  %124 = load i32, ptr %123, align 8
  %125 = load ptr, ptr %2, align 8
  %126 = getelementptr inbounds %struct._phpdbg_breakmethod_t, ptr %125, i32 0, i32 4
  %127 = load ptr, ptr %126, align 8
  %128 = load ptr, ptr %2, align 8
  %129 = getelementptr inbounds %struct._phpdbg_breakmethod_t, ptr %128, i32 0, i32 6
  %130 = load ptr, ptr %129, align 8
  %131 = call ptr @zend_get_executed_filename()
  %132 = call i32 @zend_get_executed_lineno()
  %133 = load ptr, ptr %2, align 8
  %134 = getelementptr inbounds %struct._phpdbg_breakmethod_t, ptr %133, i32 0, i32 2
  %135 = load i64, ptr %134, align 8
  %136 = call i32 (i32, i32, ptr, ...) @phpdbg_print(i32 noundef 2, i32 noundef %121, ptr noundef @.str.55, i32 noundef %124, ptr noundef %127, ptr noundef %130, ptr noundef %131, i32 noundef %132, i64 noundef %135)
  br label %185

137:                                              ; preds = %7
  %138 = load ptr, ptr %2, align 8
  %139 = getelementptr inbounds %struct._phpdbg_breakcond_t, ptr %138, i32 0, i32 6
  %140 = load i8, ptr %139, align 8
  %141 = trunc i8 %140 to i1
  br i1 %141, label %142, label %164

142:                                              ; preds = %137
  %143 = load i32, ptr getelementptr inbounds (%struct._zend_phpdbg_globals, ptr @phpdbg_globals, i32 0, i32 39, i64 1), align 4
  %144 = load ptr, ptr %2, align 8
  %145 = getelementptr inbounds %struct._phpdbg_breakcond_t, ptr %144, i32 0, i32 0
  %146 = load i32, ptr %145, align 8
  %147 = load ptr, ptr %2, align 8
  %148 = getelementptr inbounds %struct._phpdbg_breakcond_t, ptr %147, i32 0, i32 7
  %149 = call ptr @phpdbg_param_tostring(ptr noundef %148, ptr noundef %3)
  %150 = load ptr, ptr %2, align 8
  %151 = getelementptr inbounds %struct._phpdbg_breakcond_t, ptr %150, i32 0, i32 4
  %152 = load ptr, ptr %151, align 8
  %153 = call ptr @zend_get_executed_filename()
  %154 = call i32 @zend_get_executed_lineno()
  %155 = load ptr, ptr %2, align 8
  %156 = getelementptr inbounds %struct._phpdbg_breakcond_t, ptr %155, i32 0, i32 2
  %157 = load i64, ptr %156, align 8
  %158 = call i32 (i32, i32, ptr, ...) @phpdbg_print(i32 noundef 2, i32 noundef %143, ptr noundef @.str.56, i32 noundef %146, ptr noundef %149, ptr noundef %152, ptr noundef %153, i32 noundef %154, i64 noundef %157)
  %159 = load ptr, ptr %3, align 8
  %160 = icmp ne ptr %159, null
  br i1 %160, label %161, label %163

161:                                              ; preds = %142
  %162 = load ptr, ptr %3, align 8
  call void @free(ptr noundef %162) #11
  br label %163

163:                                              ; preds = %161, %142
  br label %178

164:                                              ; preds = %137
  %165 = load i32, ptr getelementptr inbounds (%struct._zend_phpdbg_globals, ptr @phpdbg_globals, i32 0, i32 39, i64 1), align 4
  %166 = load ptr, ptr %2, align 8
  %167 = getelementptr inbounds %struct._phpdbg_breakcond_t, ptr %166, i32 0, i32 0
  %168 = load i32, ptr %167, align 8
  %169 = load ptr, ptr %2, align 8
  %170 = getelementptr inbounds %struct._phpdbg_breakcond_t, ptr %169, i32 0, i32 4
  %171 = load ptr, ptr %170, align 8
  %172 = call ptr @zend_get_executed_filename()
  %173 = call i32 @zend_get_executed_lineno()
  %174 = load ptr, ptr %2, align 8
  %175 = getelementptr inbounds %struct._phpdbg_breakcond_t, ptr %174, i32 0, i32 2
  %176 = load i64, ptr %175, align 8
  %177 = call i32 (i32, i32, ptr, ...) @phpdbg_print(i32 noundef 2, i32 noundef %165, ptr noundef @.str.57, i32 noundef %168, ptr noundef %171, ptr noundef %172, i32 noundef %173, i64 noundef %176)
  br label %178

178:                                              ; preds = %164, %163
  br label %185

179:                                              ; preds = %7
  br label %180

180:                                              ; preds = %179, %6
  %181 = load i32, ptr getelementptr inbounds (%struct._zend_phpdbg_globals, ptr @phpdbg_globals, i32 0, i32 39, i64 1), align 4
  %182 = call ptr @zend_get_executed_filename()
  %183 = call i32 @zend_get_executed_lineno()
  %184 = call i32 (i32, i32, ptr, ...) @phpdbg_print(i32 noundef 2, i32 noundef %181, ptr noundef @.str.58, ptr noundef %182, i32 noundef %183)
  br label %185

185:                                              ; preds = %180, %178, %120, %106, %92, %75, %55, %41, %27, %12
  ret void
}