; Function Attrs: nounwind uwtable
define void @phpdbg_print_breakpoint(ptr noundef %0) local_unnamed_addr #1 {
  %2 = alloca ptr, align 8
  %.not = icmp eq ptr %0, null
  br i1 %.not, label %120, label %3

3:                                                ; preds = %1
  %4 = getelementptr inbounds i8, ptr %0, i64 4
  %5 = load i8, ptr %4, align 4
  switch i8 %5, label %120 [
    i8 0, label %6
    i8 2, label %16
    i8 3, label %26
    i8 8, label %36
    i8 7, label %50
    i8 9, label %62
    i8 6, label %72
    i8 4, label %82
    i8 5, label %94
  ]

6:                                                ; preds = %3
  %7 = load i32, ptr getelementptr inbounds (%struct._zend_phpdbg_globals, ptr @phpdbg_globals, i64 0, i32 39, i64 1), align 4
  %8 = load i32, ptr %0, align 8
  %9 = getelementptr inbounds i8, ptr %0, i64 24
  %10 = load ptr, ptr %9, align 8
  %11 = getelementptr inbounds i8, ptr %0, i64 32
  %12 = load i64, ptr %11, align 8
  %13 = getelementptr inbounds i8, ptr %0, i64 8
  %14 = load i64, ptr %13, align 8
  %15 = tail call i32 (i32, i32, ptr, ...) @phpdbg_print(i32 noundef 2, i32 noundef %7, ptr noundef nonnull @.str.49, i32 noundef %8, ptr noundef %10, i64 noundef %12, i64 noundef %14) #14
  br label %125

16:                                               ; preds = %3
  %17 = load i32, ptr getelementptr inbounds (%struct._zend_phpdbg_globals, ptr @phpdbg_globals, i64 0, i32 39, i64 1), align 4
  %18 = load i32, ptr %0, align 8
  %19 = getelementptr inbounds i8, ptr %0, i64 24
  %20 = load ptr, ptr %19, align 8
  %21 = tail call ptr @zend_get_executed_filename() #14
  %22 = tail call i32 @zend_get_executed_lineno() #14
  %23 = getelementptr inbounds i8, ptr %0, i64 8
  %24 = load i64, ptr %23, align 8
  %25 = tail call i32 (i32, i32, ptr, ...) @phpdbg_print(i32 noundef 2, i32 noundef %17, ptr noundef nonnull @.str.50, i32 noundef %18, ptr noundef %20, ptr noundef %21, i32 noundef %22, i64 noundef %24) #14
  br label %125

26:                                               ; preds = %3
  %27 = load i32, ptr getelementptr inbounds (%struct._zend_phpdbg_globals, ptr @phpdbg_globals, i64 0, i32 39, i64 1), align 4
  %28 = load i32, ptr %0, align 8
  %29 = getelementptr inbounds i8, ptr %0, i64 32
  %30 = load i64, ptr %29, align 8
  %31 = tail call ptr @zend_get_executed_filename() #14
  %32 = tail call i32 @zend_get_executed_lineno() #14
  %33 = getelementptr inbounds i8, ptr %0, i64 8
  %34 = load i64, ptr %33, align 8
  %35 = tail call i32 (i32, i32, ptr, ...) @phpdbg_print(i32 noundef 2, i32 noundef %27, ptr noundef nonnull @.str.51, i32 noundef %28, i64 noundef %30, ptr noundef %31, i32 noundef %32, i64 noundef %34) #14
  br label %125

36:                                               ; preds = %3
  %37 = load i32, ptr getelementptr inbounds (%struct._zend_phpdbg_globals, ptr @phpdbg_globals, i64 0, i32 39, i64 1), align 4
  %38 = load i32, ptr %0, align 8
  %39 = getelementptr inbounds i8, ptr %0, i64 40
  %40 = load ptr, ptr %39, align 8
  %41 = getelementptr inbounds i8, ptr %0, i64 24
  %42 = load ptr, ptr %41, align 8
  %43 = getelementptr inbounds i8, ptr %0, i64 56
  %44 = load i64, ptr %43, align 8
  %45 = tail call ptr @zend_get_executed_filename() #14
  %46 = tail call i32 @zend_get_executed_lineno() #14
  %47 = getelementptr inbounds i8, ptr %0, i64 8
  %48 = load i64, ptr %47, align 8
  %49 = tail call i32 (i32, i32, ptr, ...) @phpdbg_print(i32 noundef 2, i32 noundef %37, ptr noundef nonnull @.str.52, i32 noundef %38, ptr noundef %40, ptr noundef %42, i64 noundef %44, ptr noundef %45, i32 noundef %46, i64 noundef %48) #14
  br label %125

50:                                               ; preds = %3
  %51 = load i32, ptr getelementptr inbounds (%struct._zend_phpdbg_globals, ptr @phpdbg_globals, i64 0, i32 39, i64 1), align 4
  %52 = load i32, ptr %0, align 8
  %53 = getelementptr inbounds i8, ptr %0, i64 24
  %54 = load ptr, ptr %53, align 8
  %55 = getelementptr inbounds i8, ptr %0, i64 56
  %56 = load i64, ptr %55, align 8
  %57 = tail call ptr @zend_get_executed_filename() #14
  %58 = tail call i32 @zend_get_executed_lineno() #14
  %59 = getelementptr inbounds i8, ptr %0, i64 8
  %60 = load i64, ptr %59, align 8
  %61 = tail call i32 (i32, i32, ptr, ...) @phpdbg_print(i32 noundef 2, i32 noundef %51, ptr noundef nonnull @.str.53, i32 noundef %52, ptr noundef %54, i64 noundef %56, ptr noundef %57, i32 noundef %58, i64 noundef %60) #14
  br label %125

62:                                               ; preds = %3
  %63 = load i32, ptr getelementptr inbounds (%struct._zend_phpdbg_globals, ptr @phpdbg_globals, i64 0, i32 39, i64 1), align 4
  %64 = load i32, ptr %0, align 8
  %65 = getelementptr inbounds i8, ptr %0, i64 56
  %66 = load i64, ptr %65, align 8
  %67 = tail call ptr @zend_get_executed_filename() #14
  %68 = tail call i32 @zend_get_executed_lineno() #14
  %69 = getelementptr inbounds i8, ptr %0, i64 8
  %70 = load i64, ptr %69, align 8
  %71 = tail call i32 (i32, i32, ptr, ...) @phpdbg_print(i32 noundef 2, i32 noundef %63, ptr noundef nonnull @.str.51, i32 noundef %64, i64 noundef %66, ptr noundef %67, i32 noundef %68, i64 noundef %70) #14
  br label %125

72:                                               ; preds = %3
  %73 = load i32, ptr getelementptr inbounds (%struct._zend_phpdbg_globals, ptr @phpdbg_globals, i64 0, i32 39, i64 1), align 4
  %74 = load i32, ptr %0, align 8
  %75 = getelementptr inbounds i8, ptr %0, i64 24
  %76 = load ptr, ptr %75, align 8
  %77 = tail call ptr @zend_get_executed_filename() #14
  %78 = tail call i32 @zend_get_executed_lineno() #14
  %79 = getelementptr inbounds i8, ptr %0, i64 8
  %80 = load i64, ptr %79, align 8
  %81 = tail call i32 (i32, i32, ptr, ...) @phpdbg_print(i32 noundef 2, i32 noundef %73, ptr noundef nonnull @.str.54, i32 noundef %74, ptr noundef %76, ptr noundef %77, i32 noundef %78, i64 noundef %80) #14
  br label %125

82:                                               ; preds = %3
  %83 = load i32, ptr getelementptr inbounds (%struct._zend_phpdbg_globals, ptr @phpdbg_globals, i64 0, i32 39, i64 1), align 4
  %84 = load i32, ptr %0, align 8
  %85 = getelementptr inbounds i8, ptr %0, i64 24
  %86 = load ptr, ptr %85, align 8
  %87 = getelementptr inbounds i8, ptr %0, i64 40
  %88 = load ptr, ptr %87, align 8
  %89 = tail call ptr @zend_get_executed_filename() #14
  %90 = tail call i32 @zend_get_executed_lineno() #14
  %91 = getelementptr inbounds i8, ptr %0, i64 8
  %92 = load i64, ptr %91, align 8
  %93 = tail call i32 (i32, i32, ptr, ...) @phpdbg_print(i32 noundef 2, i32 noundef %83, ptr noundef nonnull @.str.55, i32 noundef %84, ptr noundef %86, ptr noundef %88, ptr noundef %89, i32 noundef %90, i64 noundef %92) #14
  br label %125

94:                                               ; preds = %3
  %95 = getelementptr inbounds i8, ptr %0, i64 40
  %96 = load i8, ptr %95, align 8
  %97 = and i8 %96, 1
  %.not40 = icmp eq i8 %97, 0
  %98 = load i32, ptr getelementptr inbounds (%struct._zend_phpdbg_globals, ptr @phpdbg_globals, i64 0, i32 39, i64 1), align 4
  %99 = load i32, ptr %0, align 8
  br i1 %.not40, label %112, label %100

100:                                              ; preds = %94
  %101 = getelementptr inbounds i8, ptr %0, i64 48
  %102 = call ptr @phpdbg_param_tostring(ptr noundef nonnull %101, ptr noundef nonnull %2) #14
  %103 = getelementptr inbounds i8, ptr %0, i64 24
  %104 = load ptr, ptr %103, align 8
  %105 = call ptr @zend_get_executed_filename() #14
  %106 = call i32 @zend_get_executed_lineno() #14
  %107 = getelementptr inbounds i8, ptr %0, i64 8
  %108 = load i64, ptr %107, align 8
  %109 = call i32 (i32, i32, ptr, ...) @phpdbg_print(i32 noundef 2, i32 noundef %98, ptr noundef nonnull @.str.56, i32 noundef %99, ptr noundef %102, ptr noundef %104, ptr noundef %105, i32 noundef %106, i64 noundef %108) #14
  %110 = load ptr, ptr %2, align 8
  %.not41 = icmp eq ptr %110, null
  br i1 %.not41, label %125, label %111

111:                                              ; preds = %100
  call void @free(ptr noundef nonnull %110) #14
  br label %125

112:                                              ; preds = %94
  %113 = getelementptr inbounds i8, ptr %0, i64 24
  %114 = load ptr, ptr %113, align 8
  %115 = tail call ptr @zend_get_executed_filename() #14
  %116 = tail call i32 @zend_get_executed_lineno() #14
  %117 = getelementptr inbounds i8, ptr %0, i64 8
  %118 = load i64, ptr %117, align 8
  %119 = tail call i32 (i32, i32, ptr, ...) @phpdbg_print(i32 noundef 2, i32 noundef %98, ptr noundef nonnull @.str.57, i32 noundef %99, ptr noundef %114, ptr noundef %115, i32 noundef %116, i64 noundef %118) #14
  br label %125

120:                                              ; preds = %3, %1
  %121 = load i32, ptr getelementptr inbounds (%struct._zend_phpdbg_globals, ptr @phpdbg_globals, i64 0, i32 39, i64 1), align 4
  %122 = tail call ptr @zend_get_executed_filename() #14
  %123 = tail call i32 @zend_get_executed_lineno() #14
  %124 = tail call i32 (i32, i32, ptr, ...) @phpdbg_print(i32 noundef 2, i32 noundef %121, ptr noundef nonnull @.str.58, ptr noundef %122, i32 noundef %123) #14
  br label %125

125:                                              ; preds = %112, %111, %100, %120, %82, %72, %62, %50, %36, %26, %16, %6
  ret void
}